target datalayout = "e-m:e-p270:32:32-p271:32:32-p272:64:64-i64:64-i128:128-f80:128-n8:16:32:64-S128"
target triple = "x86_64-unknown-linux-gnu"

%"class.std::basic_string_view" = type { i64, ptr }
%"class.google::protobuf::compiler::cpp::FileGenerator" = type { %"class.absl::lts_20230802::flat_hash_set", %"class.std::vector", ptr, %"struct.google::protobuf::compiler::cpp::Options", %"class.google::protobuf::compiler::cpp::MessageSCCAnalyzer", %"class.absl::lts_20230802::flat_hash_map.53", %"class.std::vector.62", %"class.std::vector.67", %"class.std::vector.72", %"class.std::vector.77", %"class.std::vector.82" }
%"class.absl::lts_20230802::flat_hash_set" = type { %"class.absl::lts_20230802::container_internal::raw_hash_set" }
%"class.absl::lts_20230802::container_internal::raw_hash_set" = type { %"class.absl::lts_20230802::container_internal::CompressedTuple" }
%"class.absl::lts_20230802::container_internal::CompressedTuple" = type { %"struct.absl::lts_20230802::container_internal::internal_compressed_tuple::CompressedTupleImpl" }
%"struct.absl::lts_20230802::container_internal::internal_compressed_tuple::CompressedTupleImpl" = type { %"struct.absl::lts_20230802::container_internal::internal_compressed_tuple::Storage" }
%"struct.absl::lts_20230802::container_internal::internal_compressed_tuple::Storage" = type { %"class.absl::lts_20230802::container_internal::CommonFields" }
%"class.absl::lts_20230802::container_internal::CommonFields" = type { ptr, ptr, i64, %"class.absl::lts_20230802::container_internal::CompressedTuple.0" }
%"class.absl::lts_20230802::container_internal::CompressedTuple.0" = type { %"struct.absl::lts_20230802::container_internal::internal_compressed_tuple::CompressedTupleImpl.1" }
%"struct.absl::lts_20230802::container_internal::internal_compressed_tuple::CompressedTupleImpl.1" = type { %"struct.absl::lts_20230802::container_internal::internal_compressed_tuple::Storage.2" }
%"struct.absl::lts_20230802::container_internal::internal_compressed_tuple::Storage.2" = type { i64 }
%"class.std::vector" = type { %"struct.std::_Vector_base" }
%"struct.std::_Vector_base" = type { %"struct.std::_Vector_base<absl::lts_20230802::AnyInvocable<void (google::protobuf::io::Printer *)>, std::allocator<absl::lts_20230802::AnyInvocable<void (google::protobuf::io::Printer *)>>>::_Vector_impl" }
%"struct.std::_Vector_base<absl::lts_20230802::AnyInvocable<void (google::protobuf::io::Printer *)>, std::allocator<absl::lts_20230802::AnyInvocable<void (google::protobuf::io::Printer *)>>>::_Vector_impl" = type { %"struct.std::_Vector_base<absl::lts_20230802::AnyInvocable<void (google::protobuf::io::Printer *)>, std::allocator<absl::lts_20230802::AnyInvocable<void (google::protobuf::io::Printer *)>>>::_Vector_impl_data" }
%"struct.std::_Vector_base<absl::lts_20230802::AnyInvocable<void (google::protobuf::io::Printer *)>, std::allocator<absl::lts_20230802::AnyInvocable<void (google::protobuf::io::Printer *)>>>::_Vector_impl_data" = type { ptr, ptr, ptr }
%"struct.google::protobuf::compiler::cpp::Options" = type <{ ptr, ptr, %"class.std::__cxx11::basic_string", %"class.std::__cxx11::basic_string", %"class.std::__cxx11::basic_string", %"class.std::__cxx11::basic_string", %"struct.google::protobuf::compiler::cpp::FieldListenerOptions", i32, i32, i8, i8, i8, i8, i8, i8, i8, i8, i8, i8, i8, i8, i8, i8, [2 x i8] }>
%"class.std::__cxx11::basic_string" = type { %"struct.std::__cxx11::basic_string<char>::_Alloc_hider", i64, %union.anon }
%"struct.std::__cxx11::basic_string<char>::_Alloc_hider" = type { ptr }
%union.anon = type { i64, [8 x i8] }
%"struct.google::protobuf::compiler::cpp::FieldListenerOptions" = type { i8, %"class.absl::lts_20230802::flat_hash_set.13" }
%"class.absl::lts_20230802::flat_hash_set.13" = type { %"class.absl::lts_20230802::container_internal::raw_hash_set.14" }
%"class.absl::lts_20230802::container_internal::raw_hash_set.14" = type { %"class.absl::lts_20230802::container_internal::CompressedTuple.15" }
%"class.absl::lts_20230802::container_internal::CompressedTuple.15" = type { %"struct.absl::lts_20230802::container_internal::internal_compressed_tuple::CompressedTupleImpl.16" }
%"struct.absl::lts_20230802::container_internal::internal_compressed_tuple::CompressedTupleImpl.16" = type { %"struct.absl::lts_20230802::container_internal::internal_compressed_tuple::Storage" }
%"class.google::protobuf::compiler::cpp::MessageSCCAnalyzer" = type { %"class.google::protobuf::compiler::SCCAnalyzer", %"struct.google::protobuf::compiler::cpp::Options", %"class.absl::lts_20230802::flat_hash_map.42" }
%"class.google::protobuf::compiler::SCCAnalyzer" = type { %"class.absl::lts_20230802::flat_hash_map", %"class.std::vector.32", i32, %"class.std::vector.37" }
%"class.absl::lts_20230802::flat_hash_map" = type { %"class.absl::lts_20230802::container_internal::raw_hash_map" }
%"class.absl::lts_20230802::container_internal::raw_hash_map" = type { %"class.absl::lts_20230802::container_internal::raw_hash_set.23" }
%"class.absl::lts_20230802::container_internal::raw_hash_set.23" = type { %"class.absl::lts_20230802::container_internal::CompressedTuple.24" }
%"class.absl::lts_20230802::container_internal::CompressedTuple.24" = type { %"struct.absl::lts_20230802::container_internal::internal_compressed_tuple::CompressedTupleImpl.25" }
%"struct.absl::lts_20230802::container_internal::internal_compressed_tuple::CompressedTupleImpl.25" = type { %"struct.absl::lts_20230802::container_internal::internal_compressed_tuple::Storage" }
%"class.std::vector.32" = type { %"struct.std::_Vector_base.33" }
%"struct.std::_Vector_base.33" = type { %"struct.std::_Vector_base<const google::protobuf::Descriptor *, std::allocator<const google::protobuf::Descriptor *>>::_Vector_impl" }
%"struct.std::_Vector_base<const google::protobuf::Descriptor *, std::allocator<const google::protobuf::Descriptor *>>::_Vector_impl" = type { %"struct.std::_Vector_base<const google::protobuf::Descriptor *, std::allocator<const google::protobuf::Descriptor *>>::_Vector_impl_data" }
%"struct.std::_Vector_base<const google::protobuf::Descriptor *, std::allocator<const google::protobuf::Descriptor *>>::_Vector_impl_data" = type { ptr, ptr, ptr }
%"class.std::vector.37" = type { %"struct.std::_Vector_base.38" }
%"struct.std::_Vector_base.38" = type { %"struct.std::_Vector_base<std::unique_ptr<google::protobuf::compiler::SCC>, std::allocator<std::unique_ptr<google::protobuf::compiler::SCC>>>::_Vector_impl" }
%"struct.std::_Vector_base<std::unique_ptr<google::protobuf::compiler::SCC>, std::allocator<std::unique_ptr<google::protobuf::compiler::SCC>>>::_Vector_impl" = type { %"struct.std::_Vector_base<std::unique_ptr<google::protobuf::compiler::SCC>, std::allocator<std::unique_ptr<google::protobuf::compiler::SCC>>>::_Vector_impl_data" }
%"struct.std::_Vector_base<std::unique_ptr<google::protobuf::compiler::SCC>, std::allocator<std::unique_ptr<google::protobuf::compiler::SCC>>>::_Vector_impl_data" = type { ptr, ptr, ptr }
%"class.absl::lts_20230802::flat_hash_map.42" = type { %"class.absl::lts_20230802::container_internal::raw_hash_map.43" }
%"class.absl::lts_20230802::container_internal::raw_hash_map.43" = type { %"class.absl::lts_20230802::container_internal::raw_hash_set.44" }
%"class.absl::lts_20230802::container_internal::raw_hash_set.44" = type { %"class.absl::lts_20230802::container_internal::CompressedTuple.45" }
%"class.absl::lts_20230802::container_internal::CompressedTuple.45" = type { %"struct.absl::lts_20230802::container_internal::internal_compressed_tuple::CompressedTupleImpl.46" }
%"struct.absl::lts_20230802::container_internal::internal_compressed_tuple::CompressedTupleImpl.46" = type { %"struct.absl::lts_20230802::container_internal::internal_compressed_tuple::Storage" }
%"class.absl::lts_20230802::flat_hash_map.53" = type { %"class.absl::lts_20230802::container_internal::raw_hash_map.54" }
%"class.absl::lts_20230802::container_internal::raw_hash_map.54" = type { %"class.absl::lts_20230802::container_internal::raw_hash_set.55" }
%"class.absl::lts_20230802::container_internal::raw_hash_set.55" = type { %"class.absl::lts_20230802::container_internal::CompressedTuple.56" }
%"class.absl::lts_20230802::container_internal::CompressedTuple.56" = type { %"struct.absl::lts_20230802::container_internal::internal_compressed_tuple::CompressedTupleImpl.57" }
%"struct.absl::lts_20230802::container_internal::internal_compressed_tuple::CompressedTupleImpl.57" = type { %"struct.absl::lts_20230802::container_internal::internal_compressed_tuple::Storage" }
%"class.std::vector.62" = type { %"struct.std::_Vector_base.63" }
%"struct.std::_Vector_base.63" = type { %"struct.std::_Vector_base<std::unique_ptr<google::protobuf::compiler::cpp::MessageGenerator>, std::allocator<std::unique_ptr<google::protobuf::compiler::cpp::MessageGenerator>>>::_Vector_impl" }
%"struct.std::_Vector_base<std::unique_ptr<google::protobuf::compiler::cpp::MessageGenerator>, std::allocator<std::unique_ptr<google::protobuf::compiler::cpp::MessageGenerator>>>::_Vector_impl" = type { %"struct.std::_Vector_base<std::unique_ptr<google::protobuf::compiler::cpp::MessageGenerator>, std::allocator<std::unique_ptr<google::protobuf::compiler::cpp::MessageGenerator>>>::_Vector_impl_data" }
%"struct.std::_Vector_base<std::unique_ptr<google::protobuf::compiler::cpp::MessageGenerator>, std::allocator<std::unique_ptr<google::protobuf::compiler::cpp::MessageGenerator>>>::_Vector_impl_data" = type { ptr, ptr, ptr }
%"class.std::vector.67" = type { %"struct.std::_Vector_base.68" }
%"struct.std::_Vector_base.68" = type { %"struct.std::_Vector_base<int, std::allocator<int>>::_Vector_impl" }
%"struct.std::_Vector_base<int, std::allocator<int>>::_Vector_impl" = type { %"struct.std::_Vector_base<int, std::allocator<int>>::_Vector_impl_data" }
%"struct.std::_Vector_base<int, std::allocator<int>>::_Vector_impl_data" = type { ptr, ptr, ptr }
%"class.std::vector.72" = type { %"struct.std::_Vector_base.73" }
%"struct.std::_Vector_base.73" = type { %"struct.std::_Vector_base<std::unique_ptr<google::protobuf::compiler::cpp::EnumGenerator>, std::allocator<std::unique_ptr<google::protobuf::compiler::cpp::EnumGenerator>>>::_Vector_impl" }
%"struct.std::_Vector_base<std::unique_ptr<google::protobuf::compiler::cpp::EnumGenerator>, std::allocator<std::unique_ptr<google::protobuf::compiler::cpp::EnumGenerator>>>::_Vector_impl" = type { %"struct.std::_Vector_base<std::unique_ptr<google::protobuf::compiler::cpp::EnumGenerator>, std::allocator<std::unique_ptr<google::protobuf::compiler::cpp::EnumGenerator>>>::_Vector_impl_data" }
%"struct.std::_Vector_base<std::unique_ptr<google::protobuf::compiler::cpp::EnumGenerator>, std::allocator<std::unique_ptr<google::protobuf::compiler::cpp::EnumGenerator>>>::_Vector_impl_data" = type { ptr, ptr, ptr }
%"class.std::vector.77" = type { %"struct.std::_Vector_base.78" }
%"struct.std::_Vector_base.78" = type { %"struct.std::_Vector_base<std::unique_ptr<google::protobuf::compiler::cpp::ServiceGenerator>, std::allocator<std::unique_ptr<google::protobuf::compiler::cpp::ServiceGenerator>>>::_Vector_impl" }
%"struct.std::_Vector_base<std::unique_ptr<google::protobuf::compiler::cpp::ServiceGenerator>, std::allocator<std::unique_ptr<google::protobuf::compiler::cpp::ServiceGenerator>>>::_Vector_impl" = type { %"struct.std::_Vector_base<std::unique_ptr<google::protobuf::compiler::cpp::ServiceGenerator>, std::allocator<std::unique_ptr<google::protobuf::compiler::cpp::ServiceGenerator>>>::_Vector_impl_data" }
%"struct.std::_Vector_base<std::unique_ptr<google::protobuf::compiler::cpp::ServiceGenerator>, std::allocator<std::unique_ptr<google::protobuf::compiler::cpp::ServiceGenerator>>>::_Vector_impl_data" = type { ptr, ptr, ptr }
%"class.std::vector.82" = type { %"struct.std::_Vector_base.83" }
%"struct.std::_Vector_base.83" = type { %"struct.std::_Vector_base<std::unique_ptr<google::protobuf::compiler::cpp::ExtensionGenerator>, std::allocator<std::unique_ptr<google::protobuf::compiler::cpp::ExtensionGenerator>>>::_Vector_impl" }
%"struct.std::_Vector_base<std::unique_ptr<google::protobuf::compiler::cpp::ExtensionGenerator>, std::allocator<std::unique_ptr<google::protobuf::compiler::cpp::ExtensionGenerator>>>::_Vector_impl" = type { %"struct.std::_Vector_base<std::unique_ptr<google::protobuf::compiler::cpp::ExtensionGenerator>, std::allocator<std::unique_ptr<google::protobuf::compiler::cpp::ExtensionGenerator>>>::_Vector_impl_data" }
%"struct.std::_Vector_base<std::unique_ptr<google::protobuf::compiler::cpp::ExtensionGenerator>, std::allocator<std::unique_ptr<google::protobuf::compiler::cpp::ExtensionGenerator>>>::_Vector_impl_data" = type { ptr, ptr, ptr }
%"class.absl::lts_20230802::Span" = type { ptr, i64 }

@.str.63 = private unnamed_addr constant [112 x i8] c"\0A    PROTOBUF_PRAGMA_INIT_SEG\0A    namespace _pb = ::$proto_ns$;\0A    namespace _pbi = ::$proto_ns$::internal;\0A  \00", align 1
@.str.64 = private unnamed_addr constant [66 x i8] c"\0A      namespace _fl = ::$proto_ns$::internal::field_layout;\0A    \00", align 1

; Function Attrs: mustprogress nounwind uwtable
define linkonce_odr hidden void @_ZN4absl12lts_202308024SpanIKN6google8protobuf2io7Printer3SubEEC2EPS7_m(ptr noundef nonnull align 8 dereferenceable(16) %this, ptr noundef %array, i64 noundef %length) unnamed_addr #5 comdat align 2 {
entry:
  %this.addr = alloca ptr, align 8
  %array.addr = alloca ptr, align 8
  %length.addr = alloca i64, align 8
  store ptr %this, ptr %this.addr, align 8
  store ptr %array, ptr %array.addr, align 8
  store i64 %length, ptr %length.addr, align 8
  %this1 = load ptr, ptr %this.addr, align 8
  %ptr_ = getelementptr inbounds %"class.absl::lts_20230802::Span", ptr %this1, i32 0, i32 0
  %0 = load ptr, ptr %array.addr, align 8
  store ptr %0, ptr %ptr_, align 8
  %len_ = getelementptr inbounds %"class.absl::lts_20230802::Span", ptr %this1, i32 0, i32 1
  %1 = load i64, ptr %length.addr, align 8
  store i64 %1, ptr %len_, align 8
  ret void
}

; Function Attrs: mustprogress uwtable
define linkonce_odr hidden noundef i32 @_ZN6google8protobuf8compiler3cpp14GetOptimizeForEPKNS0_14FileDescriptorERKNS2_7OptionsE(ptr noundef %file, ptr noundef nonnull align 8 dereferenceable(206) %options) #4 comdat {
entry:
  %file.addr = alloca ptr, align 8
  %options.addr = alloca ptr, align 8
  store ptr %file, ptr %file.addr, align 8
  store ptr %options, ptr %options.addr, align 8
  %0 = load ptr, ptr %file.addr, align 8
  %1 = load ptr, ptr %options.addr, align 8
  %call = call noundef i32 @_ZN6google8protobuf8compiler3cpp14GetOptimizeForEPKNS0_14FileDescriptorERKNS2_7OptionsEPb(ptr noundef %0, ptr noundef nonnull align 8 dereferenceable(206) %1, ptr noundef null)
  ret i32 %call
}

; Function Attrs: mustprogress nounwind uwtable
define linkonce_odr hidden void @_ZN4absl12lts_202308024SpanIKN6google8protobuf2io7Printer3SubEEC2Ev(ptr noundef nonnull align 8 dereferenceable(16) %this) unnamed_addr #5 comdat align 2 {
entry:
  %this.addr = alloca ptr, align 8
  store ptr %this, ptr %this.addr, align 8
  %this1 = load ptr, ptr %this.addr, align 8
  call void @_ZN4absl12lts_202308024SpanIKN6google8protobuf2io7Printer3SubEEC2EPS7_m(ptr noundef nonnull align 8 dereferenceable(16) %this1, ptr noundef null, i64 noundef 0) #3
  ret void
}

; Function Attrs: noreturn nounwind uwtable
define linkonce_odr hidden void @__clang_call_terminate(ptr noundef %0) #10 comdat {
  %2 = call ptr @__cxa_begin_catch(ptr %0) #3
  call void @_ZSt9terminatev() #20
  unreachable
}

; Function Attrs: mustprogress nounwind uwtable
define linkonce_odr hidden noundef i64 @_ZNSt11char_traitsIcE6lengthEPKc(ptr noundef %__s) #5 comdat align 2 {
entry:
  %__s.addr = alloca ptr, align 8
  store ptr %__s, ptr %__s.addr, align 8
  %0 = load ptr, ptr %__s.addr, align 8
  %call = call i64 @strlen(ptr noundef %0) #3
  ret i64 %call
}

; Function Attrs: mustprogress uwtable
define linkonce_odr hidden noundef zeroext i1 @_ZN6google8protobuf8compiler3cpp19HasGeneratedMethodsEPKNS0_14FileDescriptorERKNS2_7OptionsE(ptr noundef %file, ptr noundef nonnull align 8 dereferenceable(206) %options) #4 comdat {
entry:
  %file.addr = alloca ptr, align 8
  %options.addr = alloca ptr, align 8
  store ptr %file, ptr %file.addr, align 8
  store ptr %options, ptr %options.addr, align 8
  %0 = load ptr, ptr %file.addr, align 8
  %1 = load ptr, ptr %options.addr, align 8
  %call = call noundef i32 @_ZN6google8protobuf8compiler3cpp14GetOptimizeForEPKNS0_14FileDescriptorERKNS2_7OptionsE(ptr noundef %0, ptr noundef nonnull align 8 dereferenceable(206) %1)
  %cmp = icmp ne i32 %call, 2
  ret i1 %cmp
}

; Function Attrs: mustprogress uwtable
define linkonce_odr hidden void @_ZN6google8protobuf2io7Printer4EmitESt17basic_string_viewIcSt11char_traitsIcEENS2_14SourceLocationE(ptr noundef nonnull align 8 dereferenceable(256) %this, i64 %format.coerce0, ptr %format.coerce1) #4 comdat align 2 {
entry:
  %format = alloca %"class.std::basic_string_view", align 8
  %this.addr = alloca ptr, align 8
  %agg.tmp = alloca %"class.absl::lts_20230802::Span", align 8
  %agg.tmp2 = alloca %"class.std::basic_string_view", align 8
  %0 = getelementptr inbounds { i64, ptr }, ptr %format, i32 0, i32 0
  store i64 %format.coerce0, ptr %0, align 8
  %1 = getelementptr inbounds { i64, ptr }, ptr %format, i32 0, i32 1
  store ptr %format.coerce1, ptr %1, align 8
  store ptr %this, ptr %this.addr, align 8
  %this1 = load ptr, ptr %this.addr, align 8
  call void @_ZN4absl12lts_202308024SpanIKN6google8protobuf2io7Printer3SubEEC2Ev(ptr noundef nonnull align 8 dereferenceable(16) %agg.tmp) #3
  call void @llvm.memcpy.p0.p0.i64(ptr align 8 %agg.tmp2, ptr align 8 %format, i64 16, i1 false)
  %2 = getelementptr inbounds { ptr, i64 }, ptr %agg.tmp, i32 0, i32 0
  %3 = load ptr, ptr %2, align 8
  %4 = getelementptr inbounds { ptr, i64 }, ptr %agg.tmp, i32 0, i32 1
  %5 = load i64, ptr %4, align 8
  %6 = getelementptr inbounds { i64, ptr }, ptr %agg.tmp2, i32 0, i32 0
  %7 = load i64, ptr %6, align 8
  %8 = getelementptr inbounds { i64, ptr }, ptr %agg.tmp2, i32 0, i32 1
  %9 = load ptr, ptr %8, align 8
  call void @_ZN6google8protobuf2io7Printer4EmitEN4absl12lts_202308024SpanIKNS2_3SubEEESt17basic_string_viewIcSt11char_traitsIcEENS2_14SourceLocationE(ptr noundef nonnull align 8 dereferenceable(256) %this1, ptr %3, i64 %5, i64 %7, ptr %9)
  ret void
}

; Function Attrs: mustprogress nounwind uwtable
define linkonce_odr hidden void @_ZN6google8protobuf2io7Printer14SourceLocation7currentEv() #5 comdat align 2 {
entry:
  ret void
}

; Function Attrs: mustprogress nounwind uwtable
define linkonce_odr hidden void @_ZNSt17basic_string_viewIcSt11char_traitsIcEEC2EPKc(ptr noundef nonnull align 8 dereferenceable(16) %this, ptr noundef nonnull %__str) unnamed_addr #5 comdat align 2 personality ptr @__gxx_personality_v0 {
entry:
  %this.addr = alloca ptr, align 8
  %__str.addr = alloca ptr, align 8
  store ptr %this, ptr %this.addr, align 8
  store ptr %__str, ptr %__str.addr, align 8
  %this1 = load ptr, ptr %this.addr, align 8
  %_M_len = getelementptr inbounds %"class.std::basic_string_view", ptr %this1, i32 0, i32 0
  %0 = load ptr, ptr %__str.addr, align 8
  %call = invoke noundef i64 @_ZNSt11char_traitsIcE6lengthEPKc(ptr noundef %0)
          to label %invoke.cont unwind label %terminate.lpad

invoke.cont:                                      ; preds = %entry
  store i64 %call, ptr %_M_len, align 8
  %_M_str = getelementptr inbounds %"class.std::basic_string_view", ptr %this1, i32 0, i32 1
  %1 = load ptr, ptr %__str.addr, align 8
  store ptr %1, ptr %_M_str, align 8
  ret void

terminate.lpad:                                   ; preds = %entry
  %2 = landingpad { ptr, i32 }
          catch ptr null
  %3 = extractvalue { ptr, i32 } %2, 0
  call void @__clang_call_terminate(ptr %3) #20
  unreachable
}

; Function Attrs: mustprogress uwtable
define void @_ZN6google8protobuf8compiler3cpp13FileGenerator21GenerateSourcePreludeEPNS0_2io7PrinterE(ptr noundef nonnull align 8 dereferenceable(752) %this, ptr noundef %p) #4 align 2 {
entry:
  %this.addr = alloca ptr, align 8
  %p.addr = alloca ptr, align 8
  %agg.tmp = alloca %"class.std::basic_string_view", align 8
  %agg.tmp3 = alloca %"class.std::basic_string_view", align 8
  store ptr %this, ptr %this.addr, align 8
  store ptr %p, ptr %p.addr, align 8
  %this1 = load ptr, ptr %this.addr, align 8
  %0 = load ptr, ptr %p.addr, align 8
  call void @_ZNSt17basic_string_viewIcSt11char_traitsIcEEC2EPKc(ptr noundef nonnull align 8 dereferenceable(16) %agg.tmp, ptr noundef @.str.63) #3
  call void @_ZN6google8protobuf2io7Printer14SourceLocation7currentEv()
  %1 = getelementptr inbounds { i64, ptr }, ptr %agg.tmp, i32 0, i32 0
  %2 = load i64, ptr %1, align 8
  %3 = getelementptr inbounds { i64, ptr }, ptr %agg.tmp, i32 0, i32 1
  %4 = load ptr, ptr %3, align 8
  call void @_ZN6google8protobuf2io7Printer4EmitESt17basic_string_viewIcSt11char_traitsIcEENS2_14SourceLocationE(ptr noundef nonnull align 8 dereferenceable(256) %0, i64 %2, ptr %4)
  %file_ = getelementptr inbounds %"class.google::protobuf::compiler::cpp::FileGenerator", ptr %this1, i32 0, i32 2
  %5 = load ptr, ptr %file_, align 8
  %options_ = getelementptr inbounds %"class.google::protobuf::compiler::cpp::FileGenerator", ptr %this1, i32 0, i32 3
  %call = call noundef zeroext i1 @_ZN6google8protobuf8compiler3cpp19HasGeneratedMethodsEPKNS0_14FileDescriptorERKNS2_7OptionsE(ptr noundef %5, ptr noundef nonnull align 8 dereferenceable(206) %options_)
  br i1 %call, label %if.then, label %if.end

if.then:                                          ; preds = %entry
  %6 = load ptr, ptr %p.addr, align 8
  call void @_ZNSt17basic_string_viewIcSt11char_traitsIcEEC2EPKc(ptr noundef nonnull align 8 dereferenceable(16) %agg.tmp3, ptr noundef @.str.64) #3
  call void @_ZN6google8protobuf2io7Printer14SourceLocation7currentEv()
  %7 = getelementptr inbounds { i64, ptr }, ptr %agg.tmp3, i32 0, i32 0
  %8 = load i64, ptr %7, align 8
  %9 = getelementptr inbounds { i64, ptr }, ptr %agg.tmp3, i32 0, i32 1
  %10 = load ptr, ptr %9, align 8
  call void @_ZN6google8protobuf2io7Printer4EmitESt17basic_string_viewIcSt11char_traitsIcEENS2_14SourceLocationE(ptr noundef nonnull align 8 dereferenceable(256) %6, i64 %8, ptr %10)
  br label %if.end

if.end:                                           ; preds = %if.then, %entry
  ret void
}