; Function Attrs: mustprogress uwtable
define void @_ZN6google8protobuf8compiler3cpp13FileGenerator21GenerateSourcePreludeEPNS0_2io7PrinterE(ptr noundef nonnull align 8 dereferenceable(752) %this, ptr noundef nonnull %p) local_unnamed_addr #3 align 2 personality ptr @__gxx_personality_v0 {
entry:
  tail call void @_ZN6google8protobuf2io7Printer4EmitEN4absl12lts_202308024SpanIKNS2_3SubEEESt17basic_string_viewIcSt11char_traitsIcEENS2_14SourceLocationE(ptr noundef nonnull align 8 dereferenceable(256) %p, ptr null, i64 0, i64 111, ptr nonnull @.str.63)
  %file_ = getelementptr inbounds i8, ptr %this, i64 56
  %0 = load ptr, ptr %file_, align 8
  %options_ = getelementptr inbounds i8, ptr %this, i64 64
  %call.i.i2 = tail call noundef i32 @_ZN6google8protobuf8compiler3cpp14GetOptimizeForEPKNS0_14FileDescriptorERKNS2_7OptionsEPb(ptr noundef %0, ptr noundef nonnull align 8 dereferenceable(206) %options_, ptr noundef null)
  %cmp.i.not = icmp eq i32 %call.i.i2, 2
  br i1 %cmp.i.not, label %if.end, label %if.then

if.then:                                          ; preds = %entry
  tail call void @_ZN6google8protobuf2io7Printer4EmitEN4absl12lts_202308024SpanIKNS2_3SubEEESt17basic_string_viewIcSt11char_traitsIcEENS2_14SourceLocationE(ptr noundef nonnull align 8 dereferenceable(256) %p, ptr null, i64 0, i64 65, ptr nonnull @.str.64)
  br label %if.end

if.end:                                           ; preds = %if.then, %entry
  ret void
}